target datalayout = "e-m:e-p270:32:32-p271:32:32-p272:64:64-i64:64-i128:128-f80:128-n8:16:32:64-S128"
target triple = "x86_64-pc-linux-gnu"

@.str.2055 = private unnamed_addr constant [17 x i8] c"0x%x (%lu pages)\00", align 1
@.str.2056 = private unnamed_addr constant [17 x i8] c"0x%x (unlimited)\00", align 1

; Function Attrs: null_pointer_is_valid sspstrong uwtable
define internal void @add_ctrl_mdts(ptr noundef %0, i32 noundef %1) #0 {
  %3 = alloca ptr, align 8
  %4 = alloca i32, align 4
  store ptr %0, ptr %3, align 8
  store i32 %1, ptr %4, align 4
  %5 = load i32, ptr %4, align 4
  %6 = icmp ne i32 %5, 0
  br i1 %6, label %7, label %16

7:                                                ; preds = %2
  %8 = load ptr, ptr %3, align 8
  %9 = load ptr, ptr %3, align 8
  %10 = call i64 @llvm.objectsize.i64.p0(ptr %9, i1 false, i1 true, i1 true)
  %11 = load i32, ptr %4, align 4
  %12 = load i32, ptr %4, align 4
  %13 = zext i32 %12 to i64
  %14 = shl i64 1, %13
  %15 = call i32 (ptr, i64, i32, i64, ptr, ...) @__snprintf_chk(ptr noundef %8, i64 noundef 240, i32 noundef 2, i64 noundef %10, ptr noundef @.str.2055, i32 noundef %11, i64 noundef %14)
  br label %22

16:                                               ; preds = %2
  %17 = load ptr, ptr %3, align 8
  %18 = load ptr, ptr %3, align 8
  %19 = call i64 @llvm.objectsize.i64.p0(ptr %18, i1 false, i1 true, i1 true)
  %20 = load i32, ptr %4, align 4
  %21 = call i32 (ptr, i64, i32, i64, ptr, ...) @__snprintf_chk(ptr noundef %17, i64 noundef 240, i32 noundef 2, i64 noundef %19, ptr noundef @.str.2056, i32 noundef %20)
  br label %22

22:                                               ; preds = %16, %7
  ret void
}