; Function Attrs: nofree null_pointer_is_valid sspstrong uwtable
define internal void @add_ctrl_mdts(ptr noundef %0, i32 noundef %1) #6 {
  %.not = icmp eq i32 %1, 0
  br i1 %.not, label %7, label %3

3:                                                ; preds = %2
  %4 = zext nneg i32 %1 to i64
  %5 = shl nuw i64 1, %4
  %6 = tail call i32 (ptr, i64, i32, i64, ptr, ...) @__snprintf_chk(ptr noundef %0, i64 noundef 240, i32 noundef 2, i64 noundef -1, ptr noundef nonnull @.str.2055, i32 noundef %1, i64 noundef %5)
  br label %9

7:                                                ; preds = %2
  %8 = tail call i32 (ptr, i64, i32, i64, ptr, ...) @__snprintf_chk(ptr noundef %0, i64 noundef 240, i32 noundef 2, i64 noundef -1, ptr noundef nonnull @.str.2056, i32 noundef 0)
  br label %9

9:                                                ; preds = %7, %3
  ret void
}